; Function Attrs: mustprogress nounwind willreturn uwtable
define dso_local range(i32 -30, 1) i32 @onig_region_set(ptr noundef captures(none) %0, i32 noundef %1, i32 noundef %2, i32 noundef %3) local_unnamed_addr #6 {
  %5 = icmp slt i32 %1, 0
  br i1 %5, label %onig_region_resize.exit, label %6

6:                                                ; preds = %4
  %7 = load i32, ptr %0, align 8, !tbaa !27
  %.not = icmp slt i32 %1, %7
  br i1 %.not, label %onig_region_resize.exit.thread, label %8

8:                                                ; preds = %6
  %9 = add nuw nsw i32 %1, 1
  %10 = getelementptr inbounds nuw i8, ptr %0, i64 4
  store i32 %9, ptr %10, align 4, !tbaa !21
  %11 = tail call i32 @llvm.umax.i32(i32 %9, i32 10)
  %12 = icmp eq i32 %7, 0
  br i1 %12, label %13, label %22

13:                                               ; preds = %8
  %14 = zext nneg i32 %11 to i64
  %15 = shl nuw nsw i64 %14, 2
  %16 = tail call noalias ptr @malloc(i64 noundef %15) #28
  %17 = getelementptr inbounds nuw i8, ptr %0, i64 8
  store ptr %16, ptr %17, align 8, !tbaa !23
  %18 = tail call noalias ptr @malloc(i64 noundef %15) #28
  %19 = getelementptr inbounds nuw i8, ptr %0, i64 16
  store ptr %18, ptr %19, align 8, !tbaa !22
  %20 = icmp eq ptr %16, null
  %21 = icmp eq ptr %18, null
  %or.cond.i = or i1 %20, %21
  br i1 %or.cond.i, label %onig_region_resize.exit, label %.sink.split.i

22:                                               ; preds = %8
  %23 = icmp slt i32 %7, %11
  br i1 %23, label %24, label %onig_region_resize.exit.thread

24:                                               ; preds = %22
  %25 = getelementptr inbounds nuw i8, ptr %0, i64 8
  %26 = load ptr, ptr %25, align 8, !tbaa !23
  %27 = zext nneg i32 %11 to i64
  %28 = shl nuw nsw i64 %27, 2
  %29 = tail call ptr @realloc(ptr noundef %26, i64 noundef %28) #29
  store ptr %29, ptr %25, align 8, !tbaa !23
  %30 = getelementptr inbounds nuw i8, ptr %0, i64 16
  %31 = load ptr, ptr %30, align 8, !tbaa !22
  %32 = tail call ptr @realloc(ptr noundef %31, i64 noundef %28) #29
  store ptr %32, ptr %30, align 8, !tbaa !22
  %33 = load ptr, ptr %25, align 8, !tbaa !23
  %34 = icmp eq ptr %33, null
  %35 = icmp eq ptr %32, null
  %or.cond25.i = or i1 %35, %34
  br i1 %or.cond25.i, label %onig_region_resize.exit, label %.sink.split.i

.sink.split.i:                                    ; preds = %24, %13
  store i32 %11, ptr %0, align 8, !tbaa !27
  br label %onig_region_resize.exit.thread

onig_region_resize.exit.thread:                   ; preds = %.sink.split.i, %22, %6
  %36 = getelementptr inbounds nuw i8, ptr %0, i64 8
  %37 = load ptr, ptr %36, align 8, !tbaa !23
  %38 = zext nneg i32 %1 to i64
  %39 = getelementptr inbounds nuw i32, ptr %37, i64 %38
  store i32 %2, ptr %39, align 4, !tbaa !24
  %40 = getelementptr inbounds nuw i8, ptr %0, i64 16
  %41 = load ptr, ptr %40, align 8, !tbaa !22
  %42 = getelementptr inbounds nuw i32, ptr %41, i64 %38
  store i32 %3, ptr %42, align 4, !tbaa !24
  br label %onig_region_resize.exit

onig_region_resize.exit:                          ; preds = %24, %13, %4, %onig_region_resize.exit.thread
  %.014 = phi i32 [ 0, %onig_region_resize.exit.thread ], [ -30, %4 ], [ -5, %13 ], [ -5, %24 ]
  ret i32 %.014
}